(lp0
(lp1
I69
aF0.0
aa(lp2
I89
aF0.0
aa(lp3
I24
aF11.0
aa(lp4
I51
aF0.0
aa(lp5
I51
aF0.0
aa(lp6
I51
aF0.0
aa(lp7
I51
aF0.0
aa(lp8
I51
aF0.0
aa(lp9
I51
aF0.0
aa(lp10
I51
aF0.0
aa(lp11
I51
aF0.0
aa(lp12
I108
aF0.0
aa.