(lp0
(lp1
I69
aF2.0839336082488127
aa(lp2
I89
aF5.082442783329927
aa(lp3
I24
aF2.0844638675638514
aa(lp4
I51
aF0.0
aa(lp5
I51
aF0.0
aa(lp6
I51
aF0.0
aa(lp7
I51
aF0.0
aa(lp8
I51
aF0.0
aa(lp9
I51
aF0.0
aa(lp10
I51
aF0.0
aa(lp11
I51
aF0.0
aa(lp12
I108
aF7.583164505422648
aa.