(lp0
(lp1
I84
aF2.083107687099854
aa(lp2
I51
aF0.0
aa(lp3
I51
aF0.0
aa(lp4
I51
aF0.0
aa(lp5
I147
aF14.827007221963122
aa(lp6
I67
aF2.5016997869183344
aa(lp7
I51
aF0.0
aa(lp8
I195
aF24.507045688655488
aa.