(lp0
(lp1
I50
acnumpy.core.multiarray
scalar
p2
(cnumpy
dtype
p3
(S'f4'
p4
I0
I1
tp5
Rp6
(I3
S'<'
p7
NNNI-1
I-1
I0
tp8
bS'!\x97\xe8;'
p9
tp10
Rp11
aa(lp12
I50
ag2
(g6
S'\x83\xa5\xd3;'
p13
tp14
Rp15
aa.